; Function Attrs: mustprogress uwtable
define dso_local noundef zeroext i1 @_ZN25cmGlobalGhsMultiGenerator23ComputeTargetBuildOrderERSt6vectorIPK17cmGeneratorTargetSaIS3_EES6_(ptr noundef nonnull align 8 dereferenceable(1840) %0, ptr nocapture noundef nonnull readonly align 8 dereferenceable(24) %1, ptr nocapture noundef nonnull align 8 dereferenceable(24) %2) local_unnamed_addr #3 align 2 personality ptr @__gxx_personality_v0 {
  %4 = alloca %"class.std::set.407", align 8
  %5 = alloca %"class.std::set.407", align 8
  %6 = getelementptr inbounds i8, ptr %4, i64 8
  store i32 0, ptr %6, align 8
  %7 = getelementptr inbounds i8, ptr %4, i64 16
  store ptr null, ptr %7, align 8
  %8 = getelementptr inbounds i8, ptr %4, i64 24
  store ptr %6, ptr %8, align 8
  %9 = getelementptr inbounds i8, ptr %4, i64 32
  store ptr %6, ptr %9, align 8
  %10 = getelementptr inbounds i8, ptr %4, i64 40
  store i64 0, ptr %10, align 8
  %11 = getelementptr inbounds i8, ptr %5, i64 8
  store i32 0, ptr %11, align 8
  %12 = getelementptr inbounds i8, ptr %5, i64 16
  store ptr null, ptr %12, align 8
  %13 = getelementptr inbounds i8, ptr %5, i64 24
  store ptr %11, ptr %13, align 8
  %14 = getelementptr inbounds i8, ptr %5, i64 32
  store ptr %11, ptr %14, align 8
  %15 = getelementptr inbounds i8, ptr %5, i64 40
  store i64 0, ptr %15, align 8
  %16 = load ptr, ptr %1, align 8
  %17 = getelementptr inbounds i8, ptr %1, i64 8
  %18 = load ptr, ptr %17, align 8
  %.not = icmp eq ptr %16, %18
  br i1 %.not, label %._crit_edge, label %.lr.ph

.lr.ph:                                           ; preds = %3, %21
  %.sroa.012.016 = phi ptr [ %22, %21 ], [ %16, %3 ]
  %19 = load ptr, ptr %.sroa.012.016, align 8
  %20 = invoke noundef zeroext i1 @_ZN25cmGlobalGhsMultiGenerator11VisitTargetERSt3setIPK17cmGeneratorTargetSt4lessIS3_ESaIS3_EES8_RSt6vectorIS3_S6_ES3_(ptr noundef nonnull align 8 dereferenceable(1840) %0, ptr noundef nonnull align 8 dereferenceable(48) %4, ptr noundef nonnull align 8 dereferenceable(48) %5, ptr noundef nonnull align 8 dereferenceable(24) %2, ptr noundef %19)
          to label %21 unwind label %23

21:                                               ; preds = %.lr.ph
  %22 = getelementptr inbounds i8, ptr %.sroa.012.016, i64 8
  %.not19 = icmp eq ptr %22, %18
  %or.cond = select i1 %20, i1 true, i1 %.not19
  br i1 %or.cond, label %._crit_edge.loopexit, label %.lr.ph

23:                                               ; preds = %.lr.ph
  %24 = landingpad { ptr, i32 }
          cleanup
  call void @_ZNSt3setIPK17cmGeneratorTargetSt4lessIS2_ESaIS2_EED2Ev(ptr noundef nonnull align 8 dereferenceable(48) %5) #20
  call void @_ZNSt3setIPK17cmGeneratorTargetSt4lessIS2_ESaIS2_EED2Ev(ptr noundef nonnull align 8 dereferenceable(48) %4) #20
  resume { ptr, i32 } %24

._crit_edge.loopexit:                             ; preds = %21
  %.pre = load ptr, ptr %12, align 8
  br label %._crit_edge

._crit_edge:                                      ; preds = %._crit_edge.loopexit, %3
  %25 = phi ptr [ null, %3 ], [ %.pre, %._crit_edge.loopexit ]
  %.lcssa = phi i1 [ false, %3 ], [ %20, %._crit_edge.loopexit ]
  invoke void @_ZNSt8_Rb_treeIPK17cmGeneratorTargetS2_St9_IdentityIS2_ESt4lessIS2_ESaIS2_EE8_M_eraseEPSt13_Rb_tree_nodeIS2_E(ptr noundef nonnull align 8 dereferenceable(48) %5, ptr noundef %25)
          to label %_ZNSt3setIPK17cmGeneratorTargetSt4lessIS2_ESaIS2_EED2Ev.exit unwind label %26

26:                                               ; preds = %._crit_edge
  %27 = landingpad { ptr, i32 }
          catch ptr null
  %28 = extractvalue { ptr, i32 } %27, 0
  call void @__clang_call_terminate(ptr %28) #24
  unreachable

_ZNSt3setIPK17cmGeneratorTargetSt4lessIS2_ESaIS2_EED2Ev.exit: ; preds = %._crit_edge
  %29 = load ptr, ptr %7, align 8
  invoke void @_ZNSt8_Rb_treeIPK17cmGeneratorTargetS2_St9_IdentityIS2_ESt4lessIS2_ESaIS2_EE8_M_eraseEPSt13_Rb_tree_nodeIS2_E(ptr noundef nonnull align 8 dereferenceable(48) %4, ptr noundef %29)
          to label %_ZNSt3setIPK17cmGeneratorTargetSt4lessIS2_ESaIS2_EED2Ev.exit11 unwind label %30

30:                                               ; preds = %_ZNSt3setIPK17cmGeneratorTargetSt4lessIS2_ESaIS2_EED2Ev.exit
  %31 = landingpad { ptr, i32 }
          catch ptr null
  %32 = extractvalue { ptr, i32 } %31, 0
  call void @__clang_call_terminate(ptr %32) #24
  unreachable

_ZNSt3setIPK17cmGeneratorTargetSt4lessIS2_ESaIS2_EED2Ev.exit11: ; preds = %_ZNSt3setIPK17cmGeneratorTargetSt4lessIS2_ESaIS2_EED2Ev.exit
  ret i1 %.lcssa
}